; Function Attrs: mustprogress nounwind uwtable
define hidden void @_ZN10PerfMemory6detachEPcm(ptr noundef %0, i64 noundef %1) local_unnamed_addr #0 align 2 {
  %3 = alloca %class.ThreadCritical, align 1
  %4 = load ptr, ptr @_ZN10PerfMemory6_startE, align 8
  %.not.i = icmp eq ptr %4, null
  %.not3.i = icmp ugt ptr %4, %0
  %or.cond.i = or i1 %.not.i, %.not3.i
  %5 = load ptr, ptr @_ZN10PerfMemory4_endE, align 8
  %6 = icmp ule ptr %5, %0
  %or.cond.not = select i1 %or.cond.i, i1 true, i1 %6
  br i1 %or.cond.not, label %_ZN10PerfMemory8containsEPc.exit.thread, label %28

_ZN10PerfMemory8containsEPc.exit.thread:          ; preds = %2
  %7 = getelementptr inbounds i8, ptr %0, i64 %1
  %8 = getelementptr inbounds i8, ptr %7, i64 -1
  %.not3.i5 = icmp ugt ptr %4, %8
  %or.cond.i6 = or i1 %.not.i, %.not3.i5
  %9 = icmp ule ptr %5, %8
  %or.cond11.not = select i1 %or.cond.i6, i1 true, i1 %9
  br i1 %or.cond11.not, label %_ZN10PerfMemory8containsEPc.exit7.thread, label %28

_ZN10PerfMemory8containsEPc.exit7.thread:         ; preds = %_ZN10PerfMemory8containsEPc.exit.thread
  call void @llvm.lifetime.start.p0(i64 1, ptr nonnull %3)
  %10 = load i32, ptr @_ZN10MemTracker15_tracking_levelE, align 4
  %11 = icmp sgt i32 %10, 1
  br i1 %11, label %12, label %21

12:                                               ; preds = %_ZN10PerfMemory8containsEPc.exit7.thread
  call void @_ZN14ThreadCriticalC1Ev(ptr noundef nonnull align 1 dereferenceable(1) %3) #13
  %13 = call i32 @munmap(ptr noundef %0, i64 noundef %1) #13
  %14 = icmp eq i32 %13, 0
  br i1 %14, label %15, label %_ZN10MemTracker29record_virtual_memory_releaseEPhm.exit.i

15:                                               ; preds = %12
  %16 = load i32, ptr @_ZN10MemTracker15_tracking_levelE, align 4
  %17 = icmp sgt i32 %16, 1
  %18 = icmp ne ptr %0, null
  %or.cond.i.i = and i1 %18, %17
  br i1 %or.cond.i.i, label %19, label %_ZN10MemTracker29record_virtual_memory_releaseEPhm.exit.i

19:                                               ; preds = %15
  %20 = call noundef zeroext i1 @_ZN20VirtualMemoryTracker22remove_released_regionEPhm(ptr noundef nonnull %0, i64 noundef %1) #13
  br label %_ZN10MemTracker29record_virtual_memory_releaseEPhm.exit.i

_ZN10MemTracker29record_virtual_memory_releaseEPhm.exit.i: ; preds = %19, %15, %12
  call void @_ZN14ThreadCriticalD1Ev(ptr noundef nonnull align 1 dereferenceable(1) %3) #13
  br label %23

21:                                               ; preds = %_ZN10PerfMemory8containsEPc.exit7.thread
  %22 = tail call i32 @munmap(ptr noundef %0, i64 noundef %1) #13
  br label %23

23:                                               ; preds = %21, %_ZN10MemTracker29record_virtual_memory_releaseEPhm.exit.i
  %.0.i = phi i32 [ %13, %_ZN10MemTracker29record_virtual_memory_releaseEPhm.exit.i ], [ %22, %21 ]
  %.not.i8 = icmp eq i32 %.0.i, 0
  br i1 %.not.i8, label %_ZL12unmap_sharedPcm.exit, label %24

24:                                               ; preds = %23
  %25 = load volatile ptr, ptr getelementptr inbounds (i8, ptr @_ZN16LogTagSetMappingILN6LogTag4typeE105ELS1_0ELS1_0ELS1_0ELS1_0ELS1_0EE7_tagsetE, i64 64), align 8
  %.not9.i = icmp eq ptr %25, null
  br i1 %.not9.i, label %_ZL12unmap_sharedPcm.exit, label %26

26:                                               ; preds = %24
  %27 = ptrtoint ptr %0 to i64
  call void (ptr, ...) @_ZN7LogImplILN6LogTag4typeE105ELS1_0ELS1_0ELS1_0ELS1_0ELS1_0EE5writeILN8LogLevel4typeE3EEEvPKcz(ptr noundef nonnull @.str.35, i64 noundef %27, i64 noundef %1)
  br label %_ZL12unmap_sharedPcm.exit

_ZL12unmap_sharedPcm.exit:                        ; preds = %23, %24, %26
  call void @llvm.lifetime.end.p0(i64 1, ptr nonnull %3)
  br label %28

28:                                               ; preds = %_ZN10PerfMemory8containsEPc.exit.thread, %2, %_ZL12unmap_sharedPcm.exit
  ret void
}